; Function Attrs: mustprogress uwtable
define hidden noundef zeroext i1 @_ZN6google8protobuf24SimpleDescriptorDatabase27FindFileContainingExtensionERKNSt7__cxx1112basic_stringIcSt11char_traitsIcESaIcEEEiPNS0_19FileDescriptorProtoE(ptr noundef nonnull align 8 dereferenceable(176) %0, ptr noundef nonnull align 8 dereferenceable(32) %1, i32 noundef %2, ptr noundef %3) unnamed_addr #6 align 2 {
  %5 = getelementptr inbounds nuw i8, ptr %0, i64 8
  %6 = tail call noundef ptr @_ZN6google8protobuf24SimpleDescriptorDatabase15DescriptorIndexIPKNS0_19FileDescriptorProtoEE13FindExtensionERKNSt7__cxx1112basic_stringIcSt11char_traitsIcESaIcEEEi(ptr noundef nonnull align 8 dereferenceable(144) %5, ptr noundef nonnull align 8 dereferenceable(32) %1, i32 noundef %2)
  %7 = icmp ne ptr %6, null
  br i1 %7, label %8, label %_ZN6google8protobuf24SimpleDescriptorDatabase9MaybeCopyEPKNS0_19FileDescriptorProtoEPS2_.exit

8:                                                ; preds = %4
  tail call void @_ZN6google8protobuf19FileDescriptorProto8CopyFromERKS1_(ptr noundef nonnull align 8 dereferenceable(216) %3, ptr noundef nonnull align 8 dereferenceable(216) %6)
  br label %_ZN6google8protobuf24SimpleDescriptorDatabase9MaybeCopyEPKNS0_19FileDescriptorProtoEPS2_.exit

_ZN6google8protobuf24SimpleDescriptorDatabase9MaybeCopyEPKNS0_19FileDescriptorProtoEPS2_.exit: ; preds = %4, %8
  ret i1 %7
}